target datalayout = "e-m:e-p270:32:32-p271:32:32-p272:64:64-i64:64-i128:128-f80:128-n8:16:32:64-S128"
target triple = "x86_64-pc-linux-gnu"

%"class.pxrInternal_v0_24__pxrReserved__::Usd_ClipCache" = type { %"class.pxrInternal_v0_24__pxrReserved__::SdfPathTable", ptr, ptr }
%"class.pxrInternal_v0_24__pxrReserved__::SdfPathTable" = type { %"class.std::vector", i64, i64 }
%"class.std::vector" = type { %"struct.std::_Vector_base" }
%"struct.std::_Vector_base" = type { %"struct.std::_Vector_base<pxrInternal_v0_24__pxrReserved__::SdfPathTable<std::vector<std::shared_ptr<pxrInternal_v0_24__pxrReserved__::Usd_ClipSet>>>::_Entry *, std::allocator<pxrInternal_v0_24__pxrReserved__::SdfPathTable<std::vector<std::shared_ptr<pxrInternal_v0_24__pxrReserved__::Usd_ClipSet>>>::_Entry *>>::_Vector_impl" }
%"struct.std::_Vector_base<pxrInternal_v0_24__pxrReserved__::SdfPathTable<std::vector<std::shared_ptr<pxrInternal_v0_24__pxrReserved__::Usd_ClipSet>>>::_Entry *, std::allocator<pxrInternal_v0_24__pxrReserved__::SdfPathTable<std::vector<std::shared_ptr<pxrInternal_v0_24__pxrReserved__::Usd_ClipSet>>>::_Entry *>>::_Vector_impl" = type { %"struct.std::_Vector_base<pxrInternal_v0_24__pxrReserved__::SdfPathTable<std::vector<std::shared_ptr<pxrInternal_v0_24__pxrReserved__::Usd_ClipSet>>>::_Entry *, std::allocator<pxrInternal_v0_24__pxrReserved__::SdfPathTable<std::vector<std::shared_ptr<pxrInternal_v0_24__pxrReserved__::Usd_ClipSet>>>::_Entry *>>::_Vector_impl_data" }
%"struct.std::_Vector_base<pxrInternal_v0_24__pxrReserved__::SdfPathTable<std::vector<std::shared_ptr<pxrInternal_v0_24__pxrReserved__::Usd_ClipSet>>>::_Entry *, std::allocator<pxrInternal_v0_24__pxrReserved__::SdfPathTable<std::vector<std::shared_ptr<pxrInternal_v0_24__pxrReserved__::Usd_ClipSet>>>::_Entry *>>::_Vector_impl_data" = type { ptr, ptr, ptr }

; Function Attrs: mustprogress nounwind uwtable
define linkonce_odr void @_ZNSt15__new_allocatorIPN32pxrInternal_v0_24__pxrReserved__12SdfPathTableISt6vectorISt10shared_ptrINS0_11Usd_ClipSetEESaIS5_EEE6_EntryEED2Ev(ptr noundef nonnull align 1 dereferenceable(1) %0) unnamed_addr #1 comdat align 2 {
  %2 = alloca ptr, align 8
  store ptr %0, ptr %2, align 8
  ret void
}

; Function Attrs: mustprogress nounwind uwtable
define linkonce_odr void @_ZNSt15__new_allocatorIPN32pxrInternal_v0_24__pxrReserved__12SdfPathTableISt6vectorISt10shared_ptrINS0_11Usd_ClipSetEESaIS5_EEE6_EntryEE10deallocateEPSA_m(ptr noundef nonnull align 1 dereferenceable(1) %0, ptr noundef %1, i64 noundef %2) #1 comdat align 2 {
  %4 = alloca ptr, align 8
  %5 = alloca ptr, align 8
  %6 = alloca i64, align 8
  store ptr %0, ptr %4, align 8
  store ptr %1, ptr %5, align 8
  store i64 %2, ptr %6, align 8
  %7 = load ptr, ptr %5, align 8
  %8 = load i64, ptr %6, align 8
  %9 = mul i64 %8, 8
  call void @_ZdlPvm(ptr noundef %7, i64 noundef %9) #17
  ret void
}

; Function Attrs: mustprogress nounwind uwtable
define linkonce_odr void @_ZNSaIPN32pxrInternal_v0_24__pxrReserved__12SdfPathTableISt6vectorISt10shared_ptrINS_11Usd_ClipSetEESaIS4_EEE6_EntryEED2Ev(ptr noundef nonnull align 1 dereferenceable(1) %0) unnamed_addr #1 comdat align 2 {
  %2 = alloca ptr, align 8
  store ptr %0, ptr %2, align 8
  %3 = load ptr, ptr %2, align 8
  call void @_ZNSt15__new_allocatorIPN32pxrInternal_v0_24__pxrReserved__12SdfPathTableISt6vectorISt10shared_ptrINS0_11Usd_ClipSetEESaIS5_EEE6_EntryEED2Ev(ptr noundef nonnull align 1 dereferenceable(1) %3) #10
  ret void
}

; Function Attrs: mustprogress uwtable
define linkonce_odr void @_ZNSt16allocator_traitsISaIPN32pxrInternal_v0_24__pxrReserved__12SdfPathTableISt6vectorISt10shared_ptrINS0_11Usd_ClipSetEESaIS5_EEE6_EntryEEE10deallocateERSB_PSA_m(ptr noundef nonnull align 1 dereferenceable(1) %0, ptr noundef %1, i64 noundef %2) #0 comdat align 2 {
  %4 = alloca ptr, align 8
  %5 = alloca ptr, align 8
  %6 = alloca i64, align 8
  store ptr %0, ptr %4, align 8
  store ptr %1, ptr %5, align 8
  store i64 %2, ptr %6, align 8
  %7 = load ptr, ptr %4, align 8
  %8 = load ptr, ptr %5, align 8
  %9 = load i64, ptr %6, align 8
  call void @_ZNSt15__new_allocatorIPN32pxrInternal_v0_24__pxrReserved__12SdfPathTableISt6vectorISt10shared_ptrINS0_11Usd_ClipSetEESaIS5_EEE6_EntryEE10deallocateEPSA_m(ptr noundef nonnull align 1 dereferenceable(1) %7, ptr noundef %8, i64 noundef %9)
  ret void
}

; Function Attrs: mustprogress nounwind uwtable
define linkonce_odr void @_ZNSt12_Destroy_auxILb1EE9__destroyIPPN32pxrInternal_v0_24__pxrReserved__12SdfPathTableISt6vectorISt10shared_ptrINS2_11Usd_ClipSetEESaIS7_EEE6_EntryEEEvT_SE_(ptr noundef %0, ptr noundef %1) #1 comdat align 2 {
  %3 = alloca ptr, align 8
  %4 = alloca ptr, align 8
  store ptr %0, ptr %3, align 8
  store ptr %1, ptr %4, align 8
  ret void
}

; Function Attrs: mustprogress nounwind uwtable
define linkonce_odr void @_ZNSt12_Vector_baseIPN32pxrInternal_v0_24__pxrReserved__12SdfPathTableISt6vectorISt10shared_ptrINS0_11Usd_ClipSetEESaIS5_EEE6_EntryESaISA_EE12_Vector_implD2Ev(ptr noundef nonnull align 8 dereferenceable(24) %0) unnamed_addr #1 comdat align 2 {
  %2 = alloca ptr, align 8
  store ptr %0, ptr %2, align 8
  %3 = load ptr, ptr %2, align 8
  call void @_ZNSaIPN32pxrInternal_v0_24__pxrReserved__12SdfPathTableISt6vectorISt10shared_ptrINS_11Usd_ClipSetEESaIS4_EEE6_EntryEED2Ev(ptr noundef nonnull align 1 dereferenceable(1) %3) #10
  ret void
}

; Function Attrs: mustprogress uwtable
define linkonce_odr void @_ZNSt12_Vector_baseIPN32pxrInternal_v0_24__pxrReserved__12SdfPathTableISt6vectorISt10shared_ptrINS0_11Usd_ClipSetEESaIS5_EEE6_EntryESaISA_EE13_M_deallocateEPSA_m(ptr noundef nonnull align 8 dereferenceable(24) %0, ptr noundef %1, i64 noundef %2) #0 comdat align 2 {
  %4 = alloca ptr, align 8
  %5 = alloca ptr, align 8
  %6 = alloca i64, align 8
  store ptr %0, ptr %4, align 8
  store ptr %1, ptr %5, align 8
  store i64 %2, ptr %6, align 8
  %7 = load ptr, ptr %4, align 8
  %8 = load ptr, ptr %5, align 8
  %9 = icmp ne ptr %8, null
  br i1 %9, label %10, label %14

10:                                               ; preds = %3
  %11 = getelementptr inbounds nuw %"struct.std::_Vector_base", ptr %7, i32 0, i32 0
  %12 = load ptr, ptr %5, align 8
  %13 = load i64, ptr %6, align 8
  call void @_ZNSt16allocator_traitsISaIPN32pxrInternal_v0_24__pxrReserved__12SdfPathTableISt6vectorISt10shared_ptrINS0_11Usd_ClipSetEESaIS5_EEE6_EntryEEE10deallocateERSB_PSA_m(ptr noundef nonnull align 1 dereferenceable(1) %11, ptr noundef %12, i64 noundef %13)
  br label %14

14:                                               ; preds = %10, %3
  ret void
}

; Function Attrs: mustprogress uwtable
define linkonce_odr void @_ZSt8_DestroyIPPN32pxrInternal_v0_24__pxrReserved__12SdfPathTableISt6vectorISt10shared_ptrINS0_11Usd_ClipSetEESaIS5_EEE6_EntryEEvT_SC_(ptr noundef %0, ptr noundef %1) #0 comdat {
  %3 = alloca ptr, align 8
  %4 = alloca ptr, align 8
  store ptr %0, ptr %3, align 8
  store ptr %1, ptr %4, align 8
  %5 = load ptr, ptr %3, align 8
  %6 = load ptr, ptr %4, align 8
  call void @_ZNSt12_Destroy_auxILb1EE9__destroyIPPN32pxrInternal_v0_24__pxrReserved__12SdfPathTableISt6vectorISt10shared_ptrINS2_11Usd_ClipSetEESaIS7_EEE6_EntryEEEvT_SE_(ptr noundef %5, ptr noundef %6)
  ret void
}

; Function Attrs: mustprogress nounwind uwtable
define linkonce_odr void @_ZNSt12_Vector_baseIPN32pxrInternal_v0_24__pxrReserved__12SdfPathTableISt6vectorISt10shared_ptrINS0_11Usd_ClipSetEESaIS5_EEE6_EntryESaISA_EED2Ev(ptr noundef nonnull align 8 dereferenceable(24) %0) unnamed_addr #1 comdat align 2 personality ptr @__gxx_personality_v0 {
  %2 = alloca ptr, align 8
  store ptr %0, ptr %2, align 8
  %3 = load ptr, ptr %2, align 8
  %4 = getelementptr inbounds nuw %"struct.std::_Vector_base", ptr %3, i32 0, i32 0
  %5 = getelementptr inbounds nuw %"struct.std::_Vector_base<pxrInternal_v0_24__pxrReserved__::SdfPathTable<std::vector<std::shared_ptr<pxrInternal_v0_24__pxrReserved__::Usd_ClipSet>>>::_Entry *, std::allocator<pxrInternal_v0_24__pxrReserved__::SdfPathTable<std::vector<std::shared_ptr<pxrInternal_v0_24__pxrReserved__::Usd_ClipSet>>>::_Entry *>>::_Vector_impl_data", ptr %4, i32 0, i32 0
  %6 = load ptr, ptr %5, align 8
  %7 = getelementptr inbounds nuw %"struct.std::_Vector_base", ptr %3, i32 0, i32 0
  %8 = getelementptr inbounds nuw %"struct.std::_Vector_base<pxrInternal_v0_24__pxrReserved__::SdfPathTable<std::vector<std::shared_ptr<pxrInternal_v0_24__pxrReserved__::Usd_ClipSet>>>::_Entry *, std::allocator<pxrInternal_v0_24__pxrReserved__::SdfPathTable<std::vector<std::shared_ptr<pxrInternal_v0_24__pxrReserved__::Usd_ClipSet>>>::_Entry *>>::_Vector_impl_data", ptr %7, i32 0, i32 2
  %9 = load ptr, ptr %8, align 8
  %10 = getelementptr inbounds nuw %"struct.std::_Vector_base", ptr %3, i32 0, i32 0
  %11 = getelementptr inbounds nuw %"struct.std::_Vector_base<pxrInternal_v0_24__pxrReserved__::SdfPathTable<std::vector<std::shared_ptr<pxrInternal_v0_24__pxrReserved__::Usd_ClipSet>>>::_Entry *, std::allocator<pxrInternal_v0_24__pxrReserved__::SdfPathTable<std::vector<std::shared_ptr<pxrInternal_v0_24__pxrReserved__::Usd_ClipSet>>>::_Entry *>>::_Vector_impl_data", ptr %10, i32 0, i32 0
  %12 = load ptr, ptr %11, align 8
  %13 = ptrtoint ptr %9 to i64
  %14 = ptrtoint ptr %12 to i64
  %15 = sub i64 %13, %14
  %16 = sdiv exact i64 %15, 8
  invoke void @_ZNSt12_Vector_baseIPN32pxrInternal_v0_24__pxrReserved__12SdfPathTableISt6vectorISt10shared_ptrINS0_11Usd_ClipSetEESaIS5_EEE6_EntryESaISA_EE13_M_deallocateEPSA_m(ptr noundef nonnull align 8 dereferenceable(24) %3, ptr noundef %6, i64 noundef %16)
          to label %17 unwind label %19

17:                                               ; preds = %1
  %18 = getelementptr inbounds nuw %"struct.std::_Vector_base", ptr %3, i32 0, i32 0
  call void @_ZNSt12_Vector_baseIPN32pxrInternal_v0_24__pxrReserved__12SdfPathTableISt6vectorISt10shared_ptrINS0_11Usd_ClipSetEESaIS5_EEE6_EntryESaISA_EE12_Vector_implD2Ev(ptr noundef nonnull align 8 dereferenceable(24) %18) #10
  ret void

19:                                               ; preds = %1
  %20 = landingpad { ptr, i32 }
          catch ptr null
  %21 = extractvalue { ptr, i32 } %20, 0
  call void @__clang_call_terminate(ptr %21) #16
  unreachable
}

; Function Attrs: mustprogress uwtable
define linkonce_odr void @_ZSt8_DestroyIPPN32pxrInternal_v0_24__pxrReserved__12SdfPathTableISt6vectorISt10shared_ptrINS0_11Usd_ClipSetEESaIS5_EEE6_EntryESA_EvT_SC_RSaIT0_E(ptr noundef %0, ptr noundef %1, ptr noundef nonnull align 1 dereferenceable(1) %2) #0 comdat {
  %4 = alloca ptr, align 8
  %5 = alloca ptr, align 8
  %6 = alloca ptr, align 8
  store ptr %0, ptr %4, align 8
  store ptr %1, ptr %5, align 8
  store ptr %2, ptr %6, align 8
  %7 = load ptr, ptr %4, align 8
  %8 = load ptr, ptr %5, align 8
  call void @_ZSt8_DestroyIPPN32pxrInternal_v0_24__pxrReserved__12SdfPathTableISt6vectorISt10shared_ptrINS0_11Usd_ClipSetEESaIS5_EEE6_EntryEEvT_SC_(ptr noundef %7, ptr noundef %8)
  ret void
}

; Function Attrs: mustprogress nounwind uwtable
define linkonce_odr noundef nonnull align 1 dereferenceable(1) ptr @_ZNSt12_Vector_baseIPN32pxrInternal_v0_24__pxrReserved__12SdfPathTableISt6vectorISt10shared_ptrINS0_11Usd_ClipSetEESaIS5_EEE6_EntryESaISA_EE19_M_get_Tp_allocatorEv(ptr noundef nonnull align 8 dereferenceable(24) %0) #1 comdat align 2 {
  %2 = alloca ptr, align 8
  store ptr %0, ptr %2, align 8
  %3 = load ptr, ptr %2, align 8
  %4 = getelementptr inbounds nuw %"struct.std::_Vector_base", ptr %3, i32 0, i32 0
  ret ptr %4
}

; Function Attrs: noreturn nounwind uwtable
define linkonce_odr hidden void @__clang_call_terminate(ptr noundef %0) #8 comdat {
  %2 = call ptr @__cxa_begin_catch(ptr %0) #10
  call void @_ZSt9terminatev() #16
  unreachable
}

; Function Attrs: mustprogress nounwind uwtable
define linkonce_odr void @_ZNSt6vectorIPN32pxrInternal_v0_24__pxrReserved__12SdfPathTableIS_ISt10shared_ptrINS0_11Usd_ClipSetEESaIS4_EEE6_EntryESaIS9_EED2Ev(ptr noundef nonnull align 8 dereferenceable(24) %0) unnamed_addr #1 comdat align 2 personality ptr @__gxx_personality_v0 {
  %2 = alloca ptr, align 8
  store ptr %0, ptr %2, align 8
  %3 = load ptr, ptr %2, align 8
  %4 = getelementptr inbounds nuw %"struct.std::_Vector_base", ptr %3, i32 0, i32 0
  %5 = getelementptr inbounds nuw %"struct.std::_Vector_base<pxrInternal_v0_24__pxrReserved__::SdfPathTable<std::vector<std::shared_ptr<pxrInternal_v0_24__pxrReserved__::Usd_ClipSet>>>::_Entry *, std::allocator<pxrInternal_v0_24__pxrReserved__::SdfPathTable<std::vector<std::shared_ptr<pxrInternal_v0_24__pxrReserved__::Usd_ClipSet>>>::_Entry *>>::_Vector_impl_data", ptr %4, i32 0, i32 0
  %6 = load ptr, ptr %5, align 8
  %7 = getelementptr inbounds nuw %"struct.std::_Vector_base", ptr %3, i32 0, i32 0
  %8 = getelementptr inbounds nuw %"struct.std::_Vector_base<pxrInternal_v0_24__pxrReserved__::SdfPathTable<std::vector<std::shared_ptr<pxrInternal_v0_24__pxrReserved__::Usd_ClipSet>>>::_Entry *, std::allocator<pxrInternal_v0_24__pxrReserved__::SdfPathTable<std::vector<std::shared_ptr<pxrInternal_v0_24__pxrReserved__::Usd_ClipSet>>>::_Entry *>>::_Vector_impl_data", ptr %7, i32 0, i32 1
  %9 = load ptr, ptr %8, align 8
  %10 = call noundef nonnull align 1 dereferenceable(1) ptr @_ZNSt12_Vector_baseIPN32pxrInternal_v0_24__pxrReserved__12SdfPathTableISt6vectorISt10shared_ptrINS0_11Usd_ClipSetEESaIS5_EEE6_EntryESaISA_EE19_M_get_Tp_allocatorEv(ptr noundef nonnull align 8 dereferenceable(24) %3) #10
  invoke void @_ZSt8_DestroyIPPN32pxrInternal_v0_24__pxrReserved__12SdfPathTableISt6vectorISt10shared_ptrINS0_11Usd_ClipSetEESaIS5_EEE6_EntryESA_EvT_SC_RSaIT0_E(ptr noundef %6, ptr noundef %9, ptr noundef nonnull align 1 dereferenceable(1) %10)
          to label %11 unwind label %12

11:                                               ; preds = %1
  call void @_ZNSt12_Vector_baseIPN32pxrInternal_v0_24__pxrReserved__12SdfPathTableISt6vectorISt10shared_ptrINS0_11Usd_ClipSetEESaIS5_EEE6_EntryESaISA_EED2Ev(ptr noundef nonnull align 8 dereferenceable(24) %3) #10
  ret void

12:                                               ; preds = %1
  %13 = landingpad { ptr, i32 }
          catch ptr null
  %14 = extractvalue { ptr, i32 } %13, 0
  call void @__clang_call_terminate(ptr %14) #16
  unreachable
}

; Function Attrs: mustprogress nounwind uwtable
define linkonce_odr void @_ZN32pxrInternal_v0_24__pxrReserved__12SdfPathTableISt6vectorISt10shared_ptrINS_11Usd_ClipSetEESaIS4_EEED2Ev(ptr noundef nonnull align 8 dereferenceable(40) %0) unnamed_addr #1 comdat align 2 personality ptr @__gxx_personality_v0 {
  %2 = alloca ptr, align 8
  store ptr %0, ptr %2, align 8
  %3 = load ptr, ptr %2, align 8
  invoke void @_ZN32pxrInternal_v0_24__pxrReserved__12SdfPathTableISt6vectorISt10shared_ptrINS_11Usd_ClipSetEESaIS4_EEE5clearEv(ptr noundef nonnull align 8 dereferenceable(40) %3)
          to label %4 unwind label %6

4:                                                ; preds = %1
  %5 = getelementptr inbounds nuw %"class.pxrInternal_v0_24__pxrReserved__::SdfPathTable", ptr %3, i32 0, i32 0
  call void @_ZNSt6vectorIPN32pxrInternal_v0_24__pxrReserved__12SdfPathTableIS_ISt10shared_ptrINS0_11Usd_ClipSetEESaIS4_EEE6_EntryESaIS9_EED2Ev(ptr noundef nonnull align 8 dereferenceable(24) %5) #10
  ret void

6:                                                ; preds = %1
  %7 = landingpad { ptr, i32 }
          catch ptr null
  %8 = extractvalue { ptr, i32 } %7, 0
  call void @__clang_call_terminate(ptr %8) #16
  unreachable
}

; Function Attrs: mustprogress nounwind uwtable
define void @_ZN32pxrInternal_v0_24__pxrReserved__13Usd_ClipCacheD2Ev(ptr noundef nonnull align 8 dereferenceable(56) %0) unnamed_addr #1 align 2 {
  %2 = alloca ptr, align 8
  store ptr %0, ptr %2, align 8
  %3 = load ptr, ptr %2, align 8
  %4 = getelementptr inbounds nuw %"class.pxrInternal_v0_24__pxrReserved__::Usd_ClipCache", ptr %3, i32 0, i32 0
  call void @_ZN32pxrInternal_v0_24__pxrReserved__12SdfPathTableISt6vectorISt10shared_ptrINS_11Usd_ClipSetEESaIS4_EEED2Ev(ptr noundef nonnull align 8 dereferenceable(40) %4) #10
  ret void
}