; Function Attrs: mustprogress nounwind uwtable
define void @_ZN32pxrInternal_v0_24__pxrReserved__13Usd_ClipCacheD2Ev(ptr noundef nonnull align 8 dereferenceable(56) %0) unnamed_addr #3 align 2 personality ptr @__gxx_personality_v0 {
  tail call void @_ZN32pxrInternal_v0_24__pxrReserved__12SdfPathTableISt6vectorISt10shared_ptrINS_11Usd_ClipSetEESaIS4_EEE5clearEv(ptr noundef nonnull align 8 dereferenceable(40) %0)
  %2 = load ptr, ptr %0, align 8
  %.not.i.i.i.i = icmp eq ptr %2, null
  br i1 %.not.i.i.i.i, label %_ZN32pxrInternal_v0_24__pxrReserved__12SdfPathTableISt6vectorISt10shared_ptrINS_11Usd_ClipSetEESaIS4_EEED2Ev.exit, label %3

3:                                                ; preds = %1
  %4 = getelementptr inbounds nuw i8, ptr %0, i64 16
  %5 = load ptr, ptr %4, align 8
  %6 = ptrtoint ptr %5 to i64
  %7 = ptrtoint ptr %2 to i64
  %8 = sub i64 %6, %7
  tail call void @_ZdlPvm(ptr noundef nonnull %2, i64 noundef %8) #22
  br label %_ZN32pxrInternal_v0_24__pxrReserved__12SdfPathTableISt6vectorISt10shared_ptrINS_11Usd_ClipSetEESaIS4_EEED2Ev.exit

_ZN32pxrInternal_v0_24__pxrReserved__12SdfPathTableISt6vectorISt10shared_ptrINS_11Usd_ClipSetEESaIS4_EEED2Ev.exit: ; preds = %1, %3
  ret void
}